; ModuleID = '7/321.c'
source_filename = "7/321.c"
target datalayout = "e-m:e-p270:32:32-p271:32:32-p272:64:64-i64:64-f80:128-n8:16:32:64-S128"
target triple = "x86_64-pc-linux-gnu"

@.str = private unnamed_addr constant [3 x i8] c"%s\00", align 1

; Function Attrs: noinline nounwind uwtable
define dso_local i32 @main() #0 {
  %1 = alloca i32, align 4
  %2 = alloca [100 x i8], align 16
  %3 = alloca [100 x i8], align 16
  %4 = alloca i8*, align 8
  %5 = alloca [100 x i8], align 16
  %6 = alloca [100 x i8], align 16
  %7 = alloca [100 x i8], align 16
  %8 = alloca i32, align 4
  %9 = alloca i32, align 4
  %10 = alloca i32, align 4
  %11 = alloca i32, align 4
  %12 = alloca i32, align 4
  store i32 0, i32* %1, align 4
  %13 = getelementptr inbounds [100 x i8], [100 x i8]* %2, i64 0, i64 0
  %14 = call i32 (i8*, ...) bitcast (i32 (...)* @gets to i32 (i8*, ...)*)(i8* %13)
  %15 = getelementptr inbounds [100 x i8], [100 x i8]* %5, i64 0, i64 0
  %16 = call i32 (i8*, ...) bitcast (i32 (...)* @gets to i32 (i8*, ...)*)(i8* %15)
  %17 = getelementptr inbounds [100 x i8], [100 x i8]* %3, i64 0, i64 0
  %18 = call i32 (i8*, ...) bitcast (i32 (...)* @gets to i32 (i8*, ...)*)(i8* %17)
  %19 = getelementptr inbounds [100 x i8], [100 x i8]* %2, i64 0, i64 0
  %20 = getelementptr inbounds [100 x i8], [100 x i8]* %5, i64 0, i64 0
  %21 = call i8* @strstr(i8* %19, i8* %20) #3
  store i8* %21, i8** %4, align 8
  %22 = getelementptr inbounds [100 x i8], [100 x i8]* %2, i64 0, i64 0
  %23 = call i64 @strlen(i8* %22) #3
  %24 = trunc i64 %23 to i32
  store i32 %24, i32* %10, align 4
  %25 = getelementptr inbounds [100 x i8], [100 x i8]* %5, i64 0, i64 0
  %26 = call i64 @strlen(i8* %25) #3
  %27 = trunc i64 %26 to i32
  store i32 %27, i32* %11, align 4
  %28 = load i8*, i8** %4, align 8
  %29 = getelementptr inbounds [100 x i8], [100 x i8]* %2, i64 0, i64 0
  %30 = ptrtoint i8* %28 to i64
  %31 = ptrtoint i8* %29 to i64
  %32 = sub i64 %30, %31
  %33 = trunc i64 %32 to i32
  store i32 %33, i32* %12, align 4
  %34 = load i8*, i8** %4, align 8
  %35 = icmp ne i8* %34, null
  br i1 %35, label %36, label %86

36:                                               ; preds = %0
  store i32 0, i32* %8, align 4
  br label %37

37:                                               ; preds = %49, %36
  %38 = load i32, i32* %8, align 4
  %39 = load i32, i32* %12, align 4
  %40 = icmp slt i32 %38, %39
  br i1 %40, label %41, label %52

41:                                               ; preds = %37
  %42 = load i32, i32* %8, align 4
  %43 = sext i32 %42 to i64
  %44 = getelementptr inbounds [100 x i8], [100 x i8]* %2, i64 0, i64 %43
  %45 = load i8, i8* %44, align 1
  %46 = load i32, i32* %8, align 4
  %47 = sext i32 %46 to i64
  %48 = getelementptr inbounds [100 x i8], [100 x i8]* %6, i64 0, i64 %47
  store i8 %45, i8* %48, align 1
  br label %49

49:                                               ; preds = %41
  %50 = load i32, i32* %8, align 4
  %51 = add nsw i32 %50, 1
  store i32 %51, i32* %8, align 4
  br label %37

52:                                               ; preds = %37
  %53 = load i32, i32* %8, align 4
  %54 = sext i32 %53 to i64
  %55 = getelementptr inbounds [100 x i8], [100 x i8]* %6, i64 0, i64 %54
  store i8 0, i8* %55, align 1
  store i32 0, i32* %9, align 4
  %56 = load i32, i32* %8, align 4
  %57 = load i32, i32* %11, align 4
  %58 = add nsw i32 %56, %57
  store i32 %58, i32* %8, align 4
  br label %59

59:                                               ; preds = %71, %52
  %60 = load i32, i32* %8, align 4
  %61 = load i32, i32* %10, align 4
  %62 = icmp slt i32 %60, %61
  br i1 %62, label %63, label %76

63:                                               ; preds = %59
  %64 = load i32, i32* %8, align 4
  %65 = sext i32 %64 to i64
  %66 = getelementptr inbounds [100 x i8], [100 x i8]* %2, i64 0, i64 %65
  %67 = load i8, i8* %66, align 1
  %68 = load i32, i32* %9, align 4
  %69 = sext i32 %68 to i64
  %70 = getelementptr inbounds [100 x i8], [100 x i8]* %7, i64 0, i64 %69
  store i8 %67, i8* %70, align 1
  br label %71

71:                                               ; preds = %63
  %72 = load i32, i32* %8, align 4
  %73 = add nsw i32 %72, 1
  store i32 %73, i32* %8, align 4
  %74 = load i32, i32* %9, align 4
  %75 = add nsw i32 %74, 1
  store i32 %75, i32* %9, align 4
  br label %59

76:                                               ; preds = %59
  %77 = load i32, i32* %9, align 4
  %78 = sext i32 %77 to i64
  %79 = getelementptr inbounds [100 x i8], [100 x i8]* %7, i64 0, i64 %78
  store i8 0, i8* %79, align 1
  %80 = getelementptr inbounds [100 x i8], [100 x i8]* %6, i64 0, i64 0
  %81 = call i32 (i8*, ...) @printf(i8* getelementptr inbounds ([3 x i8], [3 x i8]* @.str, i64 0, i64 0), i8* %80)
  %82 = getelementptr inbounds [100 x i8], [100 x i8]* %3, i64 0, i64 0
  %83 = call i32 (i8*, ...) @printf(i8* getelementptr inbounds ([3 x i8], [3 x i8]* @.str, i64 0, i64 0), i8* %82)
  %84 = getelementptr inbounds [100 x i8], [100 x i8]* %7, i64 0, i64 0
  %85 = call i32 (i8*, ...) @printf(i8* getelementptr inbounds ([3 x i8], [3 x i8]* @.str, i64 0, i64 0), i8* %84)
  br label %89

86:                                               ; preds = %0
  %87 = getelementptr inbounds [100 x i8], [100 x i8]* %2, i64 0, i64 0
  %88 = call i32 (i8*, ...) @printf(i8* getelementptr inbounds ([3 x i8], [3 x i8]* @.str, i64 0, i64 0), i8* %87)
  br label %89

89:                                               ; preds = %86, %76
  ret i32 0
}

declare dso_local i32 @gets(...) #1

; Function Attrs: nounwind readonly
declare dso_local i8* @strstr(i8*, i8*) #2

; Function Attrs: nounwind readonly
declare dso_local i64 @strlen(i8*) #2

declare dso_local i32 @printf(i8*, ...) #1


!llvm.module.flags = !{!0}
!llvm.ident = !{!1}

!0 = !{i32 1, !"wchar_size", i32 4}
!1 = !{!"clang version 10.0.0-4ubuntu1 "}
